; Function Attrs: nounwind uwtable
define void @lv_line_set_points(ptr noundef %0, ptr noundef %1, i32 noundef %2) local_unnamed_addr #0 {
  %4 = getelementptr inbounds nuw i8, ptr %0, i64 64
  store ptr %1, ptr %4, align 8, !tbaa !12
  %5 = getelementptr inbounds nuw i8, ptr %0, i64 72
  store i32 %2, ptr %5, align 8, !tbaa !3
  %6 = getelementptr inbounds nuw i8, ptr %0, i64 76
  %7 = load i8, ptr %6, align 4
  %8 = and i8 %7, -3
  store i8 %8, ptr %6, align 4
  %9 = tail call zeroext i1 @lv_obj_refresh_self_size(ptr noundef %0) #5
  tail call void @lv_obj_invalidate(ptr noundef %0) #5
  ret void
}